; ModuleID = '61/949.cpp'
source_filename = "61/949.cpp"
target datalayout = "e-m:e-p270:32:32-p271:32:32-p272:64:64-i64:64-f80:128-n8:16:32:64-S128"
target triple = "x86_64-pc-linux-gnu"

%"class.std::ios_base::Init" = type { i8 }
%"class.std::basic_istream" = type { i32 (...)**, i64, %"class.std::basic_ios" }
%"class.std::basic_ios" = type { %"class.std::ios_base", %"class.std::basic_ostream"*, i8, i8, %"class.std::basic_streambuf"*, %"class.std::ctype"*, %"class.std::num_put"*, %"class.std::num_get"* }
%"class.std::ios_base" = type { i32 (...)**, i64, i64, i32, i32, i32, %"struct.std::ios_base::_Callback_list"*, %"struct.std::ios_base::_Words", [8 x %"struct.std::ios_base::_Words"], i32, %"struct.std::ios_base::_Words"*, %"class.std::locale" }
%"struct.std::ios_base::_Callback_list" = type { %"struct.std::ios_base::_Callback_list"*, void (i32, %"class.std::ios_base"*, i32)*, i32, i32 }
%"struct.std::ios_base::_Words" = type { i8*, i64 }
%"class.std::locale" = type { %"class.std::locale::_Impl"* }
%"class.std::locale::_Impl" = type { i32, %"class.std::locale::facet"**, i64, %"class.std::locale::facet"**, i8** }
%"class.std::locale::facet" = type <{ i32 (...)**, i32, [4 x i8] }>
%"class.std::basic_ostream" = type { i32 (...)**, %"class.std::basic_ios" }
%"class.std::basic_streambuf" = type { i32 (...)**, i8*, i8*, i8*, i8*, i8*, i8*, %"class.std::locale" }
%"class.std::ctype" = type <{ %"class.std::locale::facet.base", [4 x i8], %struct.__locale_struct*, i8, [7 x i8], i32*, i32*, i16*, i8, [256 x i8], [256 x i8], i8, [6 x i8] }>
%"class.std::locale::facet.base" = type <{ i32 (...)**, i32 }>
%struct.__locale_struct = type { [13 x %struct.__locale_data*], i16*, i32*, i32*, [13 x i8*] }
%struct.__locale_data = type opaque
%"class.std::num_put" = type { %"class.std::locale::facet.base", [4 x i8] }
%"class.std::num_get" = type { %"class.std::locale::facet.base", [4 x i8] }

@_ZStL8__ioinit = internal global %"class.std::ios_base::Init" zeroinitializer, align 1
@__dso_handle = external hidden global i8
@fibs = dso_local global [19 x i32] zeroinitializer, align 16
@_ZSt3cin = external dso_local global %"class.std::basic_istream", align 8
@_ZSt4cout = external dso_local global %"class.std::basic_ostream", align 8
@llvm.global_ctors = appending global [1 x { i32, void ()*, i8* }] [{ i32, void ()*, i8* } { i32 65535, void ()* @_GLOBAL__sub_I_949.cpp, i8* null }]

; Function Attrs: noinline uwtable
define internal void @__cxx_global_var_init() #0 section ".text.startup" {
  call void @_ZNSt8ios_base4InitC1Ev(%"class.std::ios_base::Init"* @_ZStL8__ioinit)
  %1 = call i32 @__cxa_atexit(void (i8*)* bitcast (void (%"class.std::ios_base::Init"*)* @_ZNSt8ios_base4InitD1Ev to void (i8*)*), i8* getelementptr inbounds (%"class.std::ios_base::Init", %"class.std::ios_base::Init"* @_ZStL8__ioinit, i32 0, i32 0), i8* @__dso_handle) #3
  ret void
}

declare dso_local void @_ZNSt8ios_base4InitC1Ev(%"class.std::ios_base::Init"*) unnamed_addr #1

; Function Attrs: nounwind
declare dso_local void @_ZNSt8ios_base4InitD1Ev(%"class.std::ios_base::Init"*) unnamed_addr #2

; Function Attrs: nounwind
declare dso_local i32 @__cxa_atexit(void (i8*)*, i8*, i8*) #3

; Function Attrs: noinline uwtable
define dso_local i32 @_Z3Fibi(i32 %0) #0 {
  %2 = alloca i32, align 4
  %3 = alloca i32, align 4
  store i32 %0, i32* %3, align 4
  %4 = load i32, i32* %3, align 4
  %5 = sub nsw i32 %4, 1
  %6 = sext i32 %5 to i64
  %7 = getelementptr inbounds [19 x i32], [19 x i32]* @fibs, i64 0, i64 %6
  %8 = load i32, i32* %7, align 4
  %9 = icmp ne i32 %8, 0
  br i1 %9, label %10, label %16

10:                                               ; preds = %1
  %11 = load i32, i32* %3, align 4
  %12 = sub nsw i32 %11, 1
  %13 = sext i32 %12 to i64
  %14 = getelementptr inbounds [19 x i32], [19 x i32]* @fibs, i64 0, i64 %13
  %15 = load i32, i32* %14, align 4
  store i32 %15, i32* %2, align 4
  br label %44

16:                                               ; preds = %1
  %17 = load i32, i32* %3, align 4
  %18 = icmp eq i32 %17, 1
  br i1 %18, label %22, label %19

19:                                               ; preds = %16
  %20 = load i32, i32* %3, align 4
  %21 = icmp eq i32 %20, 2
  br i1 %21, label %22, label %27

22:                                               ; preds = %19, %16
  %23 = load i32, i32* %3, align 4
  %24 = sub nsw i32 %23, 1
  %25 = sext i32 %24 to i64
  %26 = getelementptr inbounds [19 x i32], [19 x i32]* @fibs, i64 0, i64 %25
  store i32 1, i32* %26, align 4
  store i32 1, i32* %2, align 4
  br label %44

27:                                               ; preds = %19
  %28 = load i32, i32* %3, align 4
  %29 = sub nsw i32 %28, 1
  %30 = call i32 @_Z3Fibi(i32 %29)
  %31 = load i32, i32* %3, align 4
  %32 = sub nsw i32 %31, 2
  %33 = call i32 @_Z3Fibi(i32 %32)
  %34 = add nsw i32 %30, %33
  %35 = load i32, i32* %3, align 4
  %36 = sub nsw i32 %35, 1
  %37 = sext i32 %36 to i64
  %38 = getelementptr inbounds [19 x i32], [19 x i32]* @fibs, i64 0, i64 %37
  store i32 %34, i32* %38, align 4
  %39 = load i32, i32* %3, align 4
  %40 = sub nsw i32 %39, 1
  %41 = sext i32 %40 to i64
  %42 = getelementptr inbounds [19 x i32], [19 x i32]* @fibs, i64 0, i64 %41
  %43 = load i32, i32* %42, align 4
  store i32 %43, i32* %2, align 4
  br label %44

44:                                               ; preds = %27, %22, %10
  %45 = load i32, i32* %2, align 4
  ret i32 %45
}

; Function Attrs: noinline norecurse uwtable
define dso_local i32 @main() #4 {
  %1 = alloca i32, align 4
  %2 = alloca i32, align 4
  %3 = alloca i32, align 4
  %4 = alloca i32, align 4
  store i32 0, i32* %1, align 4
  store i32 0, i32* %2, align 4
  br label %5

5:                                                ; preds = %12, %0
  %6 = load i32, i32* %2, align 4
  %7 = icmp sle i32 %6, 19
  br i1 %7, label %8, label %15

8:                                                ; preds = %5
  %9 = load i32, i32* %2, align 4
  %10 = sext i32 %9 to i64
  %11 = getelementptr inbounds [19 x i32], [19 x i32]* @fibs, i64 0, i64 %10
  store i32 0, i32* %11, align 4
  br label %12

12:                                               ; preds = %8
  %13 = load i32, i32* %2, align 4
  %14 = add nsw i32 %13, 1
  store i32 %14, i32* %2, align 4
  br label %5

15:                                               ; preds = %5
  %16 = call dereferenceable(280) %"class.std::basic_istream"* @_ZNSirsERi(%"class.std::basic_istream"* @_ZSt3cin, i32* dereferenceable(4) %3)
  br label %17

17:                                               ; preds = %20, %15
  %18 = load i32, i32* %3, align 4
  %19 = icmp ne i32 %18, 0
  br i1 %19, label %20, label %28

20:                                               ; preds = %17
  %21 = call dereferenceable(280) %"class.std::basic_istream"* @_ZNSirsERi(%"class.std::basic_istream"* @_ZSt3cin, i32* dereferenceable(4) %4)
  %22 = load i32, i32* %4, align 4
  %23 = call i32 @_Z3Fibi(i32 %22)
  %24 = call dereferenceable(272) %"class.std::basic_ostream"* @_ZNSolsEi(%"class.std::basic_ostream"* @_ZSt4cout, i32 %23)
  %25 = call dereferenceable(272) %"class.std::basic_ostream"* @_ZNSolsEPFRSoS_E(%"class.std::basic_ostream"* %24, %"class.std::basic_ostream"* (%"class.std::basic_ostream"*)* @_ZSt4endlIcSt11char_traitsIcEERSt13basic_ostreamIT_T0_ES6_)
  %26 = load i32, i32* %3, align 4
  %27 = add nsw i32 %26, -1
  store i32 %27, i32* %3, align 4
  br label %17

28:                                               ; preds = %17
  ret i32 0
}

declare dso_local dereferenceable(280) %"class.std::basic_istream"* @_ZNSirsERi(%"class.std::basic_istream"*, i32* dereferenceable(4)) #1

declare dso_local dereferenceable(272) %"class.std::basic_ostream"* @_ZNSolsEi(%"class.std::basic_ostream"*, i32) #1

declare dso_local dereferenceable(272) %"class.std::basic_ostream"* @_ZNSolsEPFRSoS_E(%"class.std::basic_ostream"*, %"class.std::basic_ostream"* (%"class.std::basic_ostream"*)*) #1

declare dso_local dereferenceable(272) %"class.std::basic_ostream"* @_ZSt4endlIcSt11char_traitsIcEERSt13basic_ostreamIT_T0_ES6_(%"class.std::basic_ostream"* dereferenceable(272)) #1

; Function Attrs: noinline uwtable
define internal void @_GLOBAL__sub_I_949.cpp() #0 section ".text.startup" {
  call void @__cxx_global_var_init()
  ret void
}


!llvm.module.flags = !{!0}
!llvm.ident = !{!1}

!0 = !{i32 1, !"wchar_size", i32 4}
!1 = !{!"clang version 10.0.0-4ubuntu1 "}
